target datalayout = "e-m:e-p270:32:32-p271:32:32-p272:64:64-i64:64-i128:128-f80:128-n8:16:32:64-S128"
target triple = "x86_64-pc-linux-gnu"

%struct.jpeg_compress_struct = type { ptr, ptr, ptr, ptr, i32, i32, ptr, i32, i32, i32, i32, double, i32, i32, i32, ptr, [4 x ptr], [4 x ptr], [4 x ptr], [16 x i8], [16 x i8], [16 x i8], i32, ptr, i32, i32, i32, i32, i32, i32, i32, i32, i32, i8, i8, i8, i16, i16, i32, i32, i32, i32, i32, i32, i32, [4 x ptr], i32, i32, i32, [10 x i32], i32, i32, i32, i32, ptr, ptr, ptr, ptr, ptr, ptr, ptr, ptr, ptr, ptr, i32 }
%struct.phuff_entropy_encoder = type { %struct.jpeg_entropy_encoder, ptr, ptr, i32, ptr, i64, i64, i32, ptr, [4 x i32], i32, i32, i32, ptr, i32, i32, [4 x ptr], [4 x ptr] }
%struct.jpeg_entropy_encoder = type { ptr, ptr, ptr, ptr }
%struct.jpeg_component_info = type { i32, i32, i32, i32, i32, i32, i32, i32, i32, i32, i32, i32, i32, i32, i32, i32, i32, i32, i32, ptr, ptr }
%struct.jpeg_error_mgr = type { ptr, ptr, ptr, ptr, ptr, i32, %union.anon, i32, i64, ptr, i32, ptr, i32, i32 }
%union.anon = type { [8 x i32], [48 x i8] }
%struct.jpeg_destination_mgr = type { ptr, i64, ptr, ptr, ptr }
%struct.c_derived_tbl = type { [256 x i32], [256 x i8] }

@jpeg_nbits_table = external constant [65536 x i8], align 16

; Function Attrs: nounwind uwtable
define internal void @emit_symbol(ptr noundef %0, i32 noundef %1, i32 noundef %2) #0 {
  %4 = alloca ptr, align 8
  %5 = alloca i32, align 4
  %6 = alloca i32, align 4
  %7 = alloca ptr, align 8
  store ptr %0, ptr %4, align 8, !tbaa !29
  store i32 %1, ptr %5, align 4, !tbaa !35
  store i32 %2, ptr %6, align 4, !tbaa !35
  %8 = load ptr, ptr %4, align 8, !tbaa !29
  %9 = getelementptr inbounds nuw %struct.phuff_entropy_encoder, ptr %8, i32 0, i32 3
  %10 = load i32, ptr %9, align 8, !tbaa !42
  %11 = icmp ne i32 %10, 0
  br i1 %11, label %12, label %24

12:                                               ; preds = %3
  %13 = load ptr, ptr %4, align 8, !tbaa !29
  %14 = getelementptr inbounds nuw %struct.phuff_entropy_encoder, ptr %13, i32 0, i32 17
  %15 = load i32, ptr %5, align 4, !tbaa !35
  %16 = sext i32 %15 to i64
  %17 = getelementptr inbounds [4 x ptr], ptr %14, i64 0, i64 %16
  %18 = load ptr, ptr %17, align 8, !tbaa !36
  %19 = load i32, ptr %6, align 4, !tbaa !35
  %20 = sext i32 %19 to i64
  %21 = getelementptr inbounds i64, ptr %18, i64 %20
  %22 = load i64, ptr %21, align 8, !tbaa !84
  %23 = add nsw i64 %22, 1
  store i64 %23, ptr %21, align 8, !tbaa !84
  br label %45

24:                                               ; preds = %3
  call void @llvm.lifetime.start.p0(i64 8, ptr %7) #6
  %25 = load ptr, ptr %4, align 8, !tbaa !29
  %26 = getelementptr inbounds nuw %struct.phuff_entropy_encoder, ptr %25, i32 0, i32 16
  %27 = load i32, ptr %5, align 4, !tbaa !35
  %28 = sext i32 %27 to i64
  %29 = getelementptr inbounds [4 x ptr], ptr %26, i64 0, i64 %28
  %30 = load ptr, ptr %29, align 8, !tbaa !29
  store ptr %30, ptr %7, align 8, !tbaa !29
  %31 = load ptr, ptr %4, align 8, !tbaa !29
  %32 = load ptr, ptr %7, align 8, !tbaa !29
  %33 = getelementptr inbounds nuw %struct.c_derived_tbl, ptr %32, i32 0, i32 0
  %34 = load i32, ptr %6, align 4, !tbaa !35
  %35 = sext i32 %34 to i64
  %36 = getelementptr inbounds [256 x i32], ptr %33, i64 0, i64 %35
  %37 = load i32, ptr %36, align 4, !tbaa !35
  %38 = load ptr, ptr %7, align 8, !tbaa !29
  %39 = getelementptr inbounds nuw %struct.c_derived_tbl, ptr %38, i32 0, i32 1
  %40 = load i32, ptr %6, align 4, !tbaa !35
  %41 = sext i32 %40 to i64
  %42 = getelementptr inbounds [256 x i8], ptr %39, i64 0, i64 %41
  %43 = load i8, ptr %42, align 1, !tbaa !58
  %44 = sext i8 %43 to i32
  call void @emit_bits(ptr noundef %31, i32 noundef %37, i32 noundef %44)
  call void @llvm.lifetime.end.p0(i64 8, ptr %7) #6
  br label %45

45:                                               ; preds = %24, %12
  ret void
}

; Function Attrs: nounwind uwtable
define internal i32 @encode_mcu_DC_first(ptr noundef %0, ptr noundef %1) #0 {
  %3 = alloca ptr, align 8
  %4 = alloca ptr, align 8
  %5 = alloca ptr, align 8
  %6 = alloca i32, align 4
  %7 = alloca i32, align 4
  %8 = alloca i32, align 4
  %9 = alloca i32, align 4
  %10 = alloca i32, align 4
  %11 = alloca i32, align 4
  %12 = alloca i32, align 4
  %13 = alloca ptr, align 8
  %14 = alloca ptr, align 8
  %15 = alloca i32, align 4
  store ptr %0, ptr %3, align 8, !tbaa !3
  store ptr %1, ptr %4, align 8, !tbaa !68
  call void @llvm.lifetime.start.p0(i64 8, ptr %5) #6
  %16 = load ptr, ptr %3, align 8, !tbaa !3
  %17 = getelementptr inbounds nuw %struct.jpeg_compress_struct, ptr %16, i32 0, i32 62
  %18 = load ptr, ptr %17, align 8, !tbaa !30
  store ptr %18, ptr %5, align 8, !tbaa !29
  call void @llvm.lifetime.start.p0(i64 4, ptr %6) #6
  call void @llvm.lifetime.start.p0(i64 4, ptr %7) #6
  call void @llvm.lifetime.start.p0(i64 4, ptr %8) #6
  call void @llvm.lifetime.start.p0(i64 4, ptr %9) #6
  call void @llvm.lifetime.start.p0(i64 4, ptr %10) #6
  call void @llvm.lifetime.start.p0(i64 4, ptr %11) #6
  call void @llvm.lifetime.start.p0(i64 4, ptr %12) #6
  %19 = load ptr, ptr %3, align 8, !tbaa !3
  %20 = getelementptr inbounds nuw %struct.jpeg_compress_struct, ptr %19, i32 0, i32 53
  %21 = load i32, ptr %20, align 8, !tbaa !70
  store i32 %21, ptr %12, align 4, !tbaa !35
  call void @llvm.lifetime.start.p0(i64 8, ptr %13) #6
  call void @llvm.lifetime.start.p0(i64 8, ptr %14) #6
  call void @llvm.lifetime.start.p0(i64 4, ptr %15) #6
  %22 = load ptr, ptr %3, align 8, !tbaa !3
  %23 = getelementptr inbounds nuw %struct.jpeg_compress_struct, ptr %22, i32 0, i32 12
  %24 = load i32, ptr %23, align 8, !tbaa !71
  %25 = add nsw i32 %24, 2
  store i32 %25, ptr %15, align 4, !tbaa !35
  %26 = load ptr, ptr %3, align 8, !tbaa !3
  %27 = getelementptr inbounds nuw %struct.jpeg_compress_struct, ptr %26, i32 0, i32 6
  %28 = load ptr, ptr %27, align 8, !tbaa !72
  %29 = getelementptr inbounds nuw %struct.jpeg_destination_mgr, ptr %28, i32 0, i32 0
  %30 = load ptr, ptr %29, align 8, !tbaa !73
  %31 = load ptr, ptr %5, align 8, !tbaa !29
  %32 = getelementptr inbounds nuw %struct.phuff_entropy_encoder, ptr %31, i32 0, i32 4
  store ptr %30, ptr %32, align 8, !tbaa !75
  %33 = load ptr, ptr %3, align 8, !tbaa !3
  %34 = getelementptr inbounds nuw %struct.jpeg_compress_struct, ptr %33, i32 0, i32 6
  %35 = load ptr, ptr %34, align 8, !tbaa !72
  %36 = getelementptr inbounds nuw %struct.jpeg_destination_mgr, ptr %35, i32 0, i32 1
  %37 = load i64, ptr %36, align 8, !tbaa !76
  %38 = load ptr, ptr %5, align 8, !tbaa !29
  %39 = getelementptr inbounds nuw %struct.phuff_entropy_encoder, ptr %38, i32 0, i32 5
  store i64 %37, ptr %39, align 8, !tbaa !77
  %40 = load ptr, ptr %3, align 8, !tbaa !3
  %41 = getelementptr inbounds nuw %struct.jpeg_compress_struct, ptr %40, i32 0, i32 30
  %42 = load i32, ptr %41, align 8, !tbaa !65
  %43 = icmp ne i32 %42, 0
  br i1 %43, label %44, label %55

44:                                               ; preds = %2
  %45 = load ptr, ptr %5, align 8, !tbaa !29
  %46 = getelementptr inbounds nuw %struct.phuff_entropy_encoder, ptr %45, i32 0, i32 14
  %47 = load i32, ptr %46, align 8, !tbaa !66
  %48 = icmp eq i32 %47, 0
  br i1 %48, label %49, label %54

49:                                               ; preds = %44
  %50 = load ptr, ptr %5, align 8, !tbaa !29
  %51 = load ptr, ptr %5, align 8, !tbaa !29
  %52 = getelementptr inbounds nuw %struct.phuff_entropy_encoder, ptr %51, i32 0, i32 15
  %53 = load i32, ptr %52, align 4, !tbaa !67
  call void @emit_restart(ptr noundef %50, i32 noundef %53)
  br label %54

54:                                               ; preds = %49, %44
  br label %55

55:                                               ; preds = %54, %2
  store i32 0, ptr %10, align 4, !tbaa !35
  br label %56

56:                                               ; preds = %144, %55
  %57 = load i32, ptr %10, align 4, !tbaa !35
  %58 = load ptr, ptr %3, align 8, !tbaa !3
  %59 = getelementptr inbounds nuw %struct.jpeg_compress_struct, ptr %58, i32 0, i32 48
  %60 = load i32, ptr %59, align 8, !tbaa !78
  %61 = icmp slt i32 %57, %60
  br i1 %61, label %62, label %147

62:                                               ; preds = %56
  %63 = load ptr, ptr %4, align 8, !tbaa !68
  %64 = load i32, ptr %10, align 4, !tbaa !35
  %65 = sext i32 %64 to i64
  %66 = getelementptr inbounds ptr, ptr %63, i64 %65
  %67 = load ptr, ptr %66, align 8, !tbaa !79
  store ptr %67, ptr %13, align 8, !tbaa !79
  %68 = load ptr, ptr %3, align 8, !tbaa !3
  %69 = getelementptr inbounds nuw %struct.jpeg_compress_struct, ptr %68, i32 0, i32 49
  %70 = load i32, ptr %10, align 4, !tbaa !35
  %71 = sext i32 %70 to i64
  %72 = getelementptr inbounds [10 x i32], ptr %69, i64 0, i64 %71
  %73 = load i32, ptr %72, align 4, !tbaa !35
  store i32 %73, ptr %11, align 4, !tbaa !35
  %74 = load ptr, ptr %3, align 8, !tbaa !3
  %75 = getelementptr inbounds nuw %struct.jpeg_compress_struct, ptr %74, i32 0, i32 45
  %76 = load i32, ptr %11, align 4, !tbaa !35
  %77 = sext i32 %76 to i64
  %78 = getelementptr inbounds [4 x ptr], ptr %75, i64 0, i64 %77
  %79 = load ptr, ptr %78, align 8, !tbaa !29
  store ptr %79, ptr %14, align 8, !tbaa !29
  %80 = load ptr, ptr %13, align 8, !tbaa !79
  %81 = getelementptr inbounds [64 x i16], ptr %80, i64 0, i64 0
  %82 = load i16, ptr %81, align 2, !tbaa !81
  %83 = sext i16 %82 to i32
  %84 = load i32, ptr %12, align 4, !tbaa !35
  %85 = ashr i32 %83, %84
  store i32 %85, ptr %7, align 4, !tbaa !35
  %86 = load i32, ptr %7, align 4, !tbaa !35
  %87 = load ptr, ptr %5, align 8, !tbaa !29
  %88 = getelementptr inbounds nuw %struct.phuff_entropy_encoder, ptr %87, i32 0, i32 9
  %89 = load i32, ptr %11, align 4, !tbaa !35
  %90 = sext i32 %89 to i64
  %91 = getelementptr inbounds [4 x i32], ptr %88, i64 0, i64 %90
  %92 = load i32, ptr %91, align 4, !tbaa !35
  %93 = sub nsw i32 %86, %92
  store i32 %93, ptr %6, align 4, !tbaa !35
  %94 = load i32, ptr %7, align 4, !tbaa !35
  %95 = load ptr, ptr %5, align 8, !tbaa !29
  %96 = getelementptr inbounds nuw %struct.phuff_entropy_encoder, ptr %95, i32 0, i32 9
  %97 = load i32, ptr %11, align 4, !tbaa !35
  %98 = sext i32 %97 to i64
  %99 = getelementptr inbounds [4 x i32], ptr %96, i64 0, i64 %98
  store i32 %94, ptr %99, align 4, !tbaa !35
  %100 = load i32, ptr %6, align 4, !tbaa !35
  %101 = ashr i32 %100, 31
  store i32 %101, ptr %8, align 4, !tbaa !35
  %102 = load i32, ptr %8, align 4, !tbaa !35
  %103 = load i32, ptr %6, align 4, !tbaa !35
  %104 = xor i32 %103, %102
  store i32 %104, ptr %6, align 4, !tbaa !35
  %105 = load i32, ptr %8, align 4, !tbaa !35
  %106 = load i32, ptr %6, align 4, !tbaa !35
  %107 = sub nsw i32 %106, %105
  store i32 %107, ptr %6, align 4, !tbaa !35
  %108 = load i32, ptr %6, align 4, !tbaa !35
  %109 = load i32, ptr %8, align 4, !tbaa !35
  %110 = xor i32 %108, %109
  store i32 %110, ptr %7, align 4, !tbaa !35
  %111 = load i32, ptr %6, align 4, !tbaa !35
  %112 = sext i32 %111 to i64
  %113 = getelementptr inbounds [65536 x i8], ptr @jpeg_nbits_table, i64 0, i64 %112
  %114 = load i8, ptr %113, align 1, !tbaa !58
  %115 = zext i8 %114 to i32
  store i32 %115, ptr %9, align 4, !tbaa !35
  %116 = load i32, ptr %9, align 4, !tbaa !35
  %117 = load i32, ptr %15, align 4, !tbaa !35
  %118 = add nsw i32 %117, 1
  %119 = icmp sgt i32 %116, %118
  br i1 %119, label %120, label %131

120:                                              ; preds = %62
  %121 = load ptr, ptr %3, align 8, !tbaa !3
  %122 = getelementptr inbounds nuw %struct.jpeg_compress_struct, ptr %121, i32 0, i32 0
  %123 = load ptr, ptr %122, align 8, !tbaa !54
  %124 = getelementptr inbounds nuw %struct.jpeg_error_mgr, ptr %123, i32 0, i32 5
  store i32 6, ptr %124, align 8, !tbaa !55
  %125 = load ptr, ptr %3, align 8, !tbaa !3
  %126 = getelementptr inbounds nuw %struct.jpeg_compress_struct, ptr %125, i32 0, i32 0
  %127 = load ptr, ptr %126, align 8, !tbaa !54
  %128 = getelementptr inbounds nuw %struct.jpeg_error_mgr, ptr %127, i32 0, i32 0
  %129 = load ptr, ptr %128, align 8, !tbaa !59
  %130 = load ptr, ptr %3, align 8, !tbaa !3
  call void %129(ptr noundef %130)
  br label %131

131:                                              ; preds = %120, %62
  %132 = load ptr, ptr %5, align 8, !tbaa !29
  %133 = load ptr, ptr %14, align 8, !tbaa !29
  %134 = getelementptr inbounds nuw %struct.jpeg_component_info, ptr %133, i32 0, i32 5
  %135 = load i32, ptr %134, align 4, !tbaa !50
  %136 = load i32, ptr %9, align 4, !tbaa !35
  call void @emit_symbol(ptr noundef %132, i32 noundef %135, i32 noundef %136)
  %137 = load i32, ptr %9, align 4, !tbaa !35
  %138 = icmp ne i32 %137, 0
  br i1 %138, label %139, label %143

139:                                              ; preds = %131
  %140 = load ptr, ptr %5, align 8, !tbaa !29
  %141 = load i32, ptr %7, align 4, !tbaa !35
  %142 = load i32, ptr %9, align 4, !tbaa !35
  call void @emit_bits(ptr noundef %140, i32 noundef %141, i32 noundef %142)
  br label %143

143:                                              ; preds = %139, %131
  br label %144

144:                                              ; preds = %143
  %145 = load i32, ptr %10, align 4, !tbaa !35
  %146 = add nsw i32 %145, 1
  store i32 %146, ptr %10, align 4, !tbaa !35
  br label %56, !llvm.loop !82

147:                                              ; preds = %56
  %148 = load ptr, ptr %5, align 8, !tbaa !29
  %149 = getelementptr inbounds nuw %struct.phuff_entropy_encoder, ptr %148, i32 0, i32 4
  %150 = load ptr, ptr %149, align 8, !tbaa !75
  %151 = load ptr, ptr %3, align 8, !tbaa !3
  %152 = getelementptr inbounds nuw %struct.jpeg_compress_struct, ptr %151, i32 0, i32 6
  %153 = load ptr, ptr %152, align 8, !tbaa !72
  %154 = getelementptr inbounds nuw %struct.jpeg_destination_mgr, ptr %153, i32 0, i32 0
  store ptr %150, ptr %154, align 8, !tbaa !73
  %155 = load ptr, ptr %5, align 8, !tbaa !29
  %156 = getelementptr inbounds nuw %struct.phuff_entropy_encoder, ptr %155, i32 0, i32 5
  %157 = load i64, ptr %156, align 8, !tbaa !77
  %158 = load ptr, ptr %3, align 8, !tbaa !3
  %159 = getelementptr inbounds nuw %struct.jpeg_compress_struct, ptr %158, i32 0, i32 6
  %160 = load ptr, ptr %159, align 8, !tbaa !72
  %161 = getelementptr inbounds nuw %struct.jpeg_destination_mgr, ptr %160, i32 0, i32 1
  store i64 %157, ptr %161, align 8, !tbaa !76
  %162 = load ptr, ptr %3, align 8, !tbaa !3
  %163 = getelementptr inbounds nuw %struct.jpeg_compress_struct, ptr %162, i32 0, i32 30
  %164 = load i32, ptr %163, align 8, !tbaa !65
  %165 = icmp ne i32 %164, 0
  br i1 %165, label %166, label %190

166:                                              ; preds = %147
  %167 = load ptr, ptr %5, align 8, !tbaa !29
  %168 = getelementptr inbounds nuw %struct.phuff_entropy_encoder, ptr %167, i32 0, i32 14
  %169 = load i32, ptr %168, align 8, !tbaa !66
  %170 = icmp eq i32 %169, 0
  br i1 %170, label %171, label %185

171:                                              ; preds = %166
  %172 = load ptr, ptr %3, align 8, !tbaa !3
  %173 = getelementptr inbounds nuw %struct.jpeg_compress_struct, ptr %172, i32 0, i32 30
  %174 = load i32, ptr %173, align 8, !tbaa !65
  %175 = load ptr, ptr %5, align 8, !tbaa !29
  %176 = getelementptr inbounds nuw %struct.phuff_entropy_encoder, ptr %175, i32 0, i32 14
  store i32 %174, ptr %176, align 8, !tbaa !66
  %177 = load ptr, ptr %5, align 8, !tbaa !29
  %178 = getelementptr inbounds nuw %struct.phuff_entropy_encoder, ptr %177, i32 0, i32 15
  %179 = load i32, ptr %178, align 4, !tbaa !67
  %180 = add nsw i32 %179, 1
  store i32 %180, ptr %178, align 4, !tbaa !67
  %181 = load ptr, ptr %5, align 8, !tbaa !29
  %182 = getelementptr inbounds nuw %struct.phuff_entropy_encoder, ptr %181, i32 0, i32 15
  %183 = load i32, ptr %182, align 4, !tbaa !67
  %184 = and i32 %183, 7
  store i32 %184, ptr %182, align 4, !tbaa !67
  br label %185

185:                                              ; preds = %171, %166
  %186 = load ptr, ptr %5, align 8, !tbaa !29
  %187 = getelementptr inbounds nuw %struct.phuff_entropy_encoder, ptr %186, i32 0, i32 14
  %188 = load i32, ptr %187, align 8, !tbaa !66
  %189 = add i32 %188, -1
  store i32 %189, ptr %187, align 8, !tbaa !66
  br label %190

190:                                              ; preds = %185, %147
  call void @llvm.lifetime.end.p0(i64 4, ptr %15) #6
  call void @llvm.lifetime.end.p0(i64 8, ptr %14) #6
  call void @llvm.lifetime.end.p0(i64 8, ptr %13) #6
  call void @llvm.lifetime.end.p0(i64 4, ptr %12) #6
  call void @llvm.lifetime.end.p0(i64 4, ptr %11) #6
  call void @llvm.lifetime.end.p0(i64 4, ptr %10) #6
  call void @llvm.lifetime.end.p0(i64 4, ptr %9) #6
  call void @llvm.lifetime.end.p0(i64 4, ptr %8) #6
  call void @llvm.lifetime.end.p0(i64 4, ptr %7) #6
  call void @llvm.lifetime.end.p0(i64 4, ptr %6) #6
  call void @llvm.lifetime.end.p0(i64 8, ptr %5) #6
  ret i32 1
}