; Function Attrs: nounwind uwtable
define internal noundef i32 @encode_mcu_DC_first(ptr noundef %0, ptr noundef readonly captures(none) %1) #0 {
  %3 = getelementptr inbounds nuw i8, ptr %0, i64 496
  %4 = load ptr, ptr %3, align 8, !tbaa !27
  %5 = getelementptr inbounds nuw i8, ptr %0, i64 424
  %6 = load i32, ptr %5, align 8, !tbaa !66
  %7 = getelementptr inbounds nuw i8, ptr %0, i64 72
  %8 = load i32, ptr %7, align 8, !tbaa !67
  %9 = getelementptr inbounds nuw i8, ptr %0, i64 40
  %10 = load ptr, ptr %9, align 8, !tbaa !68
  %11 = load ptr, ptr %10, align 8, !tbaa !69
  %12 = getelementptr inbounds nuw i8, ptr %4, i64 56
  store ptr %11, ptr %12, align 8, !tbaa !71
  %13 = getelementptr inbounds nuw i8, ptr %10, i64 8
  %14 = load i64, ptr %13, align 8, !tbaa !72
  %15 = getelementptr inbounds nuw i8, ptr %4, i64 64
  store i64 %14, ptr %15, align 8, !tbaa !73
  %16 = getelementptr inbounds nuw i8, ptr %0, i64 280
  %17 = load i32, ptr %16, align 8, !tbaa !63
  %.not = icmp eq i32 %17, 0
  br i1 %.not, label %25, label %18

18:                                               ; preds = %2
  %19 = getelementptr inbounds nuw i8, ptr %4, i64 136
  %20 = load i32, ptr %19, align 8, !tbaa !64
  %21 = icmp eq i32 %20, 0
  br i1 %21, label %22, label %25

22:                                               ; preds = %18
  %23 = getelementptr inbounds nuw i8, ptr %4, i64 140
  %24 = load i32, ptr %23, align 4, !tbaa !65
  tail call fastcc void @emit_restart(ptr noundef nonnull %4, i32 noundef %24)
  br label %25

25:                                               ; preds = %18, %22, %2
  %26 = getelementptr inbounds nuw i8, ptr %0, i64 368
  %27 = load i32, ptr %26, align 8, !tbaa !74
  %28 = icmp sgt i32 %27, 0
  br i1 %28, label %.lr.ph, label %._crit_edge

.lr.ph:                                           ; preds = %25
  %29 = getelementptr inbounds nuw i8, ptr %0, i64 372
  %30 = getelementptr inbounds nuw i8, ptr %0, i64 328
  %31 = getelementptr inbounds nuw i8, ptr %4, i64 96
  %32 = add nsw i32 %8, 3
  %33 = getelementptr inbounds nuw i8, ptr %4, i64 48
  %34 = getelementptr inbounds nuw i8, ptr %4, i64 176
  %35 = getelementptr inbounds nuw i8, ptr %4, i64 144
  br label %36

36:                                               ; preds = %.lr.ph, %85
  %indvars.iv = phi i64 [ 0, %.lr.ph ], [ %indvars.iv.next, %85 ]
  %37 = getelementptr inbounds nuw ptr, ptr %1, i64 %indvars.iv
  %38 = load ptr, ptr %37, align 8, !tbaa !75
  %39 = getelementptr inbounds nuw [10 x i32], ptr %29, i64 0, i64 %indvars.iv
  %40 = load i32, ptr %39, align 4, !tbaa !44
  %41 = sext i32 %40 to i64
  %42 = getelementptr inbounds [4 x ptr], ptr %30, i64 0, i64 %41
  %43 = load ptr, ptr %42, align 8, !tbaa !43
  %44 = load i16, ptr %38, align 2, !tbaa !77
  %45 = sext i16 %44 to i32
  %46 = ashr i32 %45, %6
  %47 = getelementptr inbounds [4 x i32], ptr %31, i64 0, i64 %41
  %48 = load i32, ptr %47, align 4, !tbaa !44
  %49 = sub nsw i32 %46, %48
  store i32 %46, ptr %47, align 4, !tbaa !44
  %50 = ashr i32 %49, 31
  %51 = xor i32 %50, %49
  %52 = sub nsw i32 %51, %50
  %53 = xor i32 %52, %50
  %54 = sext i32 %52 to i64
  %55 = getelementptr inbounds [65536 x i8], ptr @jpeg_nbits_table, i64 0, i64 %54
  %56 = load i8, ptr %55, align 1, !tbaa !55
  %57 = zext i8 %56 to i32
  %58 = icmp slt i32 %32, %57
  br i1 %58, label %59, label %63

59:                                               ; preds = %36
  %60 = load ptr, ptr %0, align 8, !tbaa !51
  %61 = getelementptr inbounds nuw i8, ptr %60, i64 40
  store i32 6, ptr %61, align 8, !tbaa !52
  %62 = load ptr, ptr %60, align 8, !tbaa !56
  tail call void %62(ptr noundef nonnull %0) #7
  br label %63

63:                                               ; preds = %59, %36
  %64 = getelementptr inbounds nuw i8, ptr %43, i64 20
  %65 = load i32, ptr %64, align 4, !tbaa !45
  %66 = load i32, ptr %33, align 8, !tbaa !35
  %.not.i = icmp eq i32 %66, 0
  %67 = sext i32 %65 to i64
  %68 = zext i8 %56 to i64
  br i1 %.not.i, label %75, label %69

69:                                               ; preds = %63
  %70 = getelementptr inbounds [4 x ptr], ptr %34, i64 0, i64 %67
  %71 = load ptr, ptr %70, align 8, !tbaa !57
  %72 = getelementptr inbounds nuw i64, ptr %71, i64 %68
  %73 = load i64, ptr %72, align 8, !tbaa !78
  %74 = add nsw i64 %73, 1
  store i64 %74, ptr %72, align 8, !tbaa !78
  br label %emit_symbol.exit

75:                                               ; preds = %63
  %76 = getelementptr inbounds [4 x ptr], ptr %35, i64 0, i64 %67
  %77 = load ptr, ptr %76, align 8, !tbaa !43
  %78 = getelementptr inbounds nuw [256 x i32], ptr %77, i64 0, i64 %68
  %79 = load i32, ptr %78, align 4, !tbaa !44
  %80 = getelementptr inbounds nuw i8, ptr %77, i64 1024
  %81 = getelementptr inbounds nuw [256 x i8], ptr %80, i64 0, i64 %68
  %82 = load i8, ptr %81, align 1, !tbaa !55
  %83 = sext i8 %82 to i32
  tail call fastcc void @emit_bits(ptr noundef nonnull %4, i32 noundef %79, i32 noundef %83)
  br label %emit_symbol.exit

emit_symbol.exit:                                 ; preds = %69, %75
  %.not61 = icmp eq i8 %56, 0
  br i1 %.not61, label %85, label %84

84:                                               ; preds = %emit_symbol.exit
  tail call fastcc void @emit_bits(ptr noundef nonnull %4, i32 noundef %53, i32 noundef %57)
  br label %85

85:                                               ; preds = %emit_symbol.exit, %84
  %indvars.iv.next = add nuw nsw i64 %indvars.iv, 1
  %86 = load i32, ptr %26, align 8, !tbaa !74
  %87 = sext i32 %86 to i64
  %88 = icmp slt i64 %indvars.iv.next, %87
  br i1 %88, label %36, label %._crit_edge, !llvm.loop !79

._crit_edge:                                      ; preds = %85, %25
  %89 = load ptr, ptr %12, align 8, !tbaa !71
  %90 = load ptr, ptr %9, align 8, !tbaa !68
  store ptr %89, ptr %90, align 8, !tbaa !69
  %91 = load i64, ptr %15, align 8, !tbaa !73
  %92 = getelementptr inbounds nuw i8, ptr %90, i64 8
  store i64 %91, ptr %92, align 8, !tbaa !72
  %93 = load i32, ptr %16, align 8, !tbaa !63
  %.not60 = icmp eq i32 %93, 0
  br i1 %.not60, label %106, label %94

94:                                               ; preds = %._crit_edge
  %95 = getelementptr inbounds nuw i8, ptr %4, i64 136
  %96 = load i32, ptr %95, align 8, !tbaa !64
  %97 = icmp eq i32 %96, 0
  br i1 %97, label %98, label %103

98:                                               ; preds = %94
  %99 = getelementptr inbounds nuw i8, ptr %4, i64 140
  %100 = load i32, ptr %99, align 4, !tbaa !65
  %101 = add nsw i32 %100, 1
  %102 = and i32 %101, 7
  store i32 %102, ptr %99, align 4, !tbaa !65
  br label %103

103:                                              ; preds = %98, %94
  %104 = phi i32 [ %93, %98 ], [ %96, %94 ]
  %105 = add i32 %104, -1
  store i32 %105, ptr %95, align 8, !tbaa !64
  br label %106

106:                                              ; preds = %103, %._crit_edge
  ret i32 1
}